target datalayout = "e-m:e-p270:32:32-p271:32:32-p272:64:64-i64:64-i128:128-f80:128-n8:16:32:64-S128"
target triple = "x86_64-pc-linux-gnu"

; Function Attrs: nounwind uwtable
define hidden i64 @_Py_find_basename(ptr noundef %0) #0 {
  %2 = alloca i64, align 8
  %3 = alloca ptr, align 8
  %4 = alloca i64, align 8
  %5 = alloca i32, align 4
  store ptr %0, ptr %3, align 8, !tbaa !177
  call void @llvm.lifetime.start.p0(i64 8, ptr %4) #10
  %6 = load ptr, ptr %3, align 8, !tbaa !177
  %7 = call i64 @wcslen(ptr noundef %6) #11
  store i64 %7, ptr %4, align 8, !tbaa !186
  br label %8

8:                                                ; preds = %22, %1
  %9 = load i64, ptr %4, align 8, !tbaa !186
  %10 = icmp ugt i64 %9, 0
  br i1 %10, label %12, label %11

11:                                               ; preds = %8
  store i32 2, ptr %5, align 4
  br label %25

12:                                               ; preds = %8
  %13 = load ptr, ptr %3, align 8, !tbaa !177
  %14 = load i64, ptr %4, align 8, !tbaa !186
  %15 = getelementptr i32, ptr %13, i64 %14
  %16 = load i32, ptr %15, align 4, !tbaa !4
  %17 = icmp eq i32 %16, 47
  br i1 %17, label %18, label %21

18:                                               ; preds = %12
  %19 = load i64, ptr %4, align 8, !tbaa !186
  %20 = add i64 %19, 1
  store i64 %20, ptr %2, align 8
  store i32 1, ptr %5, align 4
  br label %25

21:                                               ; preds = %12
  br label %22

22:                                               ; preds = %21
  %23 = load i64, ptr %4, align 8, !tbaa !186
  %24 = add i64 %23, -1
  store i64 %24, ptr %4, align 8, !tbaa !186
  br label %8, !llvm.loop !202

25:                                               ; preds = %18, %11
  call void @llvm.lifetime.end.p0(i64 8, ptr %4) #10
  %26 = load i32, ptr %5, align 4
  switch i32 %26, label %30 [
    i32 2, label %27
    i32 1, label %28
  ]

27:                                               ; preds = %25
  store i64 0, ptr %2, align 8
  br label %28

28:                                               ; preds = %27, %25
  %29 = load i64, ptr %2, align 8
  ret i64 %29

30:                                               ; preds = %25
  unreachable
}