; Function Attrs: nofree nounwind memory(argmem: read) uwtable
define hidden range(i64 2, 1) i64 @_Py_find_basename(ptr noundef readonly captures(none) %0) local_unnamed_addr #14 {
  %2 = tail call i64 @wcslen(ptr noundef %0) #18
  %.not10 = icmp eq i64 %2, 0
  br i1 %.not10, label %.loopexit, label %.lr.ph

.lr.ph:                                           ; preds = %1, %8
  %.0711 = phi i64 [ %9, %8 ], [ %2, %1 ]
  %3 = getelementptr i32, ptr %0, i64 %.0711
  %4 = load i32, ptr %3, align 4, !tbaa !180
  %5 = icmp eq i32 %4, 47
  br i1 %5, label %6, label %8

6:                                                ; preds = %.lr.ph
  %7 = add i64 %.0711, 1
  br label %.loopexit

8:                                                ; preds = %.lr.ph
  %9 = add i64 %.0711, -1
  %.not = icmp eq i64 %9, 0
  br i1 %.not, label %.loopexit, label %.lr.ph, !llvm.loop !194

.loopexit:                                        ; preds = %8, %1, %6
  %spec.select = phi i64 [ %7, %6 ], [ 0, %1 ], [ 0, %8 ]
  ret i64 %spec.select
}